target datalayout = "e-m:e-p270:32:32-p271:32:32-p272:64:64-i64:64-i128:128-f80:128-n8:16:32:64-S128"
target triple = "x86_64-pc-linux-gnu"

%struct.ident_t = type { i32, i32, i32, i32, ptr }

@1 = private unnamed_addr constant %struct.ident_t { i32 0, i32 514, i32 0, i32 22, ptr @0 }, align 8

; Function Attrs: noinline norecurse nounwind uwtable
define internal void @_ZN5faiss14bitvec_shuffleEmmmPKiPKhPh.omp_outlined(ptr noalias noundef %0, ptr noalias noundef %1, ptr noundef nonnull align 8 dereferenceable(8) %2, ptr noundef nonnull align 8 dereferenceable(8) %3, ptr noundef nonnull align 8 dereferenceable(8) %4, ptr noundef nonnull align 8 dereferenceable(8) %5, ptr noundef nonnull align 8 dereferenceable(8) %6, ptr noundef nonnull align 8 dereferenceable(8) %7, ptr noundef nonnull align 8 dereferenceable(8) %8) #6 {
  %10 = alloca ptr, align 8
  %11 = alloca ptr, align 8
  %12 = alloca ptr, align 8
  %13 = alloca ptr, align 8
  %14 = alloca ptr, align 8
  %15 = alloca ptr, align 8
  %16 = alloca ptr, align 8
  %17 = alloca ptr, align 8
  %18 = alloca ptr, align 8
  %19 = alloca i64, align 8
  %20 = alloca i64, align 8
  %21 = alloca i64, align 8
  %22 = alloca i64, align 8
  %23 = alloca i64, align 8
  %24 = alloca i64, align 8
  %25 = alloca i64, align 8
  %26 = alloca i32, align 4
  %27 = alloca i64, align 8
  %28 = alloca ptr, align 8
  %29 = alloca ptr, align 8
  %30 = alloca i64, align 8
  %31 = alloca i32, align 4
  %32 = alloca i8, align 1
  store ptr %0, ptr %10, align 8, !tbaa !11
  store ptr %1, ptr %11, align 8, !tbaa !11
  store ptr %2, ptr %12, align 8, !tbaa !4
  store ptr %3, ptr %13, align 8, !tbaa !30
  store ptr %4, ptr %14, align 8, !tbaa !4
  store ptr %5, ptr %15, align 8, !tbaa !30
  store ptr %6, ptr %16, align 8, !tbaa !4
  store ptr %7, ptr %17, align 8, !tbaa !4
  store ptr %8, ptr %18, align 8, !tbaa !47
  %33 = load ptr, ptr %12, align 8, !tbaa !4
  %34 = load ptr, ptr %13, align 8, !tbaa !30
  %35 = load ptr, ptr %14, align 8, !tbaa !4
  %36 = load ptr, ptr %15, align 8, !tbaa !30
  %37 = load ptr, ptr %16, align 8, !tbaa !4
  %38 = load ptr, ptr %17, align 8, !tbaa !4
  %39 = load ptr, ptr %18, align 8, !tbaa !47
  call void @llvm.lifetime.start.p0(i64 8, ptr %19) #7
  call void @llvm.lifetime.start.p0(i64 8, ptr %20) #7
  %40 = load i64, ptr %33, align 8, !tbaa !9
  store i64 %40, ptr %20, align 8, !tbaa !9
  call void @llvm.lifetime.start.p0(i64 8, ptr %21) #7
  %41 = load i64, ptr %20, align 8, !tbaa !9
  %42 = sub i64 %41, 0
  %43 = udiv i64 %42, 1
  %44 = sub i64 %43, 1
  store i64 %44, ptr %21, align 8, !tbaa !9
  call void @llvm.lifetime.start.p0(i64 8, ptr %22) #7
  store i64 0, ptr %22, align 8, !tbaa !9
  call void @llvm.lifetime.end.p0(i64 8, ptr %22) #7
  %45 = load i64, ptr %20, align 8, !tbaa !9
  %46 = icmp ult i64 0, %45
  br i1 %46, label %47, label %131

47:                                               ; preds = %9
  call void @llvm.lifetime.start.p0(i64 8, ptr %23) #7
  store i64 0, ptr %23, align 8, !tbaa !9
  call void @llvm.lifetime.start.p0(i64 8, ptr %24) #7
  %48 = load i64, ptr %21, align 8, !tbaa !9
  store i64 %48, ptr %24, align 8, !tbaa !9
  call void @llvm.lifetime.start.p0(i64 8, ptr %25) #7
  store i64 1, ptr %25, align 8, !tbaa !9
  call void @llvm.lifetime.start.p0(i64 4, ptr %26) #7
  store i32 0, ptr %26, align 4, !tbaa !13
  call void @llvm.lifetime.start.p0(i64 8, ptr %27) #7
  %49 = load ptr, ptr %10, align 8
  %50 = load i32, ptr %49, align 4, !tbaa !13
  call void @__kmpc_for_static_init_8u(ptr @1, i32 %50, i32 34, ptr %26, ptr %23, ptr %24, ptr %25, i64 1, i64 1)
  %51 = load i64, ptr %24, align 8, !tbaa !9
  %52 = load i64, ptr %21, align 8, !tbaa !9
  %53 = icmp ugt i64 %51, %52
  br i1 %53, label %54, label %56

54:                                               ; preds = %47
  %55 = load i64, ptr %21, align 8, !tbaa !9
  br label %58

56:                                               ; preds = %47
  %57 = load i64, ptr %24, align 8, !tbaa !9
  br label %58

58:                                               ; preds = %56, %54
  %59 = phi i64 [ %55, %54 ], [ %57, %56 ]
  store i64 %59, ptr %24, align 8, !tbaa !9
  %60 = load i64, ptr %23, align 8, !tbaa !9
  store i64 %60, ptr %19, align 8, !tbaa !9
  br label %61

61:                                               ; preds = %124, %58
  %62 = load i64, ptr %19, align 8, !tbaa !9
  %63 = load i64, ptr %24, align 8, !tbaa !9
  %64 = add i64 %63, 1
  %65 = icmp ult i64 %62, %64
  br i1 %65, label %67, label %66

66:                                               ; preds = %61
  br label %127

67:                                               ; preds = %61
  %68 = load i64, ptr %19, align 8, !tbaa !9
  %69 = mul i64 %68, 1
  %70 = add i64 0, %69
  store i64 %70, ptr %27, align 8, !tbaa !9
  call void @llvm.lifetime.start.p0(i64 8, ptr %28) #7
  %71 = load ptr, ptr %34, align 8, !tbaa !21
  %72 = load i64, ptr %27, align 8, !tbaa !9
  %73 = load i64, ptr %35, align 8, !tbaa !9
  %74 = mul i64 %72, %73
  %75 = getelementptr inbounds nuw i8, ptr %71, i64 %74
  store ptr %75, ptr %28, align 8, !tbaa !21
  call void @llvm.lifetime.start.p0(i64 8, ptr %29) #7
  %76 = load ptr, ptr %36, align 8, !tbaa !21
  %77 = load i64, ptr %27, align 8, !tbaa !9
  %78 = load i64, ptr %37, align 8, !tbaa !9
  %79 = mul i64 %77, %78
  %80 = getelementptr inbounds nuw i8, ptr %76, i64 %79
  store ptr %80, ptr %29, align 8, !tbaa !21
  %81 = load ptr, ptr %29, align 8, !tbaa !21
  %82 = load i64, ptr %37, align 8, !tbaa !9
  call void @llvm.memset.p0.i64(ptr align 1 %81, i8 0, i64 %82, i1 false)
  call void @llvm.lifetime.start.p0(i64 8, ptr %30) #7
  store i64 0, ptr %30, align 8, !tbaa !9
  br label %83

83:                                               ; preds = %119, %67
  %84 = load i64, ptr %30, align 8, !tbaa !9
  %85 = load i64, ptr %38, align 8, !tbaa !9
  %86 = icmp ult i64 %84, %85
  br i1 %86, label %88, label %87

87:                                               ; preds = %83
  call void @llvm.lifetime.end.p0(i64 8, ptr %30) #7
  br label %122

88:                                               ; preds = %83
  call void @llvm.lifetime.start.p0(i64 4, ptr %31) #7
  %89 = load ptr, ptr %39, align 8, !tbaa !11
  %90 = load i64, ptr %30, align 8, !tbaa !9
  %91 = getelementptr inbounds nuw i32, ptr %89, i64 %90
  %92 = load i32, ptr %91, align 4, !tbaa !13
  store i32 %92, ptr %31, align 4, !tbaa !13
  call void @llvm.lifetime.start.p0(i64 1, ptr %32) #7
  %93 = load ptr, ptr %28, align 8, !tbaa !21
  %94 = load i32, ptr %31, align 4, !tbaa !13
  %95 = ashr i32 %94, 3
  %96 = sext i32 %95 to i64
  %97 = getelementptr inbounds i8, ptr %93, i64 %96
  %98 = load i8, ptr %97, align 1, !tbaa !23
  %99 = zext i8 %98 to i32
  %100 = load i32, ptr %31, align 4, !tbaa !13
  %101 = and i32 %100, 7
  %102 = ashr i32 %99, %101
  %103 = and i32 %102, 1
  %104 = trunc i32 %103 to i8
  store i8 %104, ptr %32, align 1, !tbaa !23
  %105 = load i8, ptr %32, align 1, !tbaa !23
  %106 = zext i8 %105 to i32
  %107 = load i64, ptr %30, align 8, !tbaa !9
  %108 = and i64 %107, 7
  %109 = trunc i64 %108 to i32
  %110 = shl i32 %106, %109
  %111 = load ptr, ptr %29, align 8, !tbaa !21
  %112 = load i64, ptr %30, align 8, !tbaa !9
  %113 = lshr i64 %112, 3
  %114 = getelementptr inbounds nuw i8, ptr %111, i64 %113
  %115 = load i8, ptr %114, align 1, !tbaa !23
  %116 = zext i8 %115 to i32
  %117 = or i32 %116, %110
  %118 = trunc i32 %117 to i8
  store i8 %118, ptr %114, align 1, !tbaa !23
  call void @llvm.lifetime.end.p0(i64 1, ptr %32) #7
  call void @llvm.lifetime.end.p0(i64 4, ptr %31) #7
  br label %119

119:                                              ; preds = %88
  %120 = load i64, ptr %30, align 8, !tbaa !9
  %121 = add i64 %120, 1
  store i64 %121, ptr %30, align 8, !tbaa !9
  br label %83, !llvm.loop !49

122:                                              ; preds = %87
  call void @llvm.lifetime.end.p0(i64 8, ptr %29) #7
  call void @llvm.lifetime.end.p0(i64 8, ptr %28) #7
  br label %123

123:                                              ; preds = %122
  br label %124

124:                                              ; preds = %123
  %125 = load i64, ptr %19, align 8, !tbaa !9
  %126 = add i64 %125, 1
  store i64 %126, ptr %19, align 8, !tbaa !9
  br label %61

127:                                              ; preds = %66
  br label %128

128:                                              ; preds = %127
  %129 = load ptr, ptr %10, align 8
  %130 = load i32, ptr %129, align 4, !tbaa !13
  call void @__kmpc_for_static_fini(ptr @1, i32 %130)
  call void @llvm.lifetime.end.p0(i64 8, ptr %27) #7
  call void @llvm.lifetime.end.p0(i64 4, ptr %26) #7
  call void @llvm.lifetime.end.p0(i64 8, ptr %25) #7
  call void @llvm.lifetime.end.p0(i64 8, ptr %24) #7
  call void @llvm.lifetime.end.p0(i64 8, ptr %23) #7
  br label %131

131:                                              ; preds = %128, %9
  call void @llvm.lifetime.end.p0(i64 8, ptr %21) #7
  call void @llvm.lifetime.end.p0(i64 8, ptr %20) #7
  call void @llvm.lifetime.end.p0(i64 8, ptr %19) #7
  ret void
}