; Function Attrs: noinline norecurse nounwind uwtable
define internal void @_ZN5faiss14bitvec_shuffleEmmmPKiPKhPh.omp_outlined(ptr noalias noundef readonly captures(none) %0, ptr noalias readnone captures(none) %1, ptr noundef nonnull readonly align 8 captures(none) dereferenceable(8) %2, ptr noundef nonnull readonly align 8 captures(none) dereferenceable(8) %3, ptr noundef nonnull readonly align 8 captures(none) dereferenceable(8) %4, ptr noundef nonnull readonly align 8 captures(none) dereferenceable(8) %5, ptr noundef nonnull readonly align 8 captures(none) dereferenceable(8) %6, ptr noundef nonnull readonly align 8 captures(none) dereferenceable(8) %7, ptr noundef nonnull readonly align 8 captures(none) dereferenceable(8) %8) #4 {
  %10 = alloca i64, align 8
  %11 = alloca i64, align 8
  %12 = alloca i64, align 8
  %13 = alloca i32, align 4
  %14 = load i64, ptr %2, align 8, !tbaa !4
  %.not = icmp eq i64 %14, 0
  br i1 %.not, label %56, label %15

15:                                               ; preds = %9
  %16 = add i64 %14, -1
  call void @llvm.lifetime.start.p0(i64 8, ptr nonnull %10) #5
  store i64 0, ptr %10, align 8, !tbaa !4
  call void @llvm.lifetime.start.p0(i64 8, ptr nonnull %11) #5
  store i64 %16, ptr %11, align 8, !tbaa !4
  call void @llvm.lifetime.start.p0(i64 8, ptr nonnull %12) #5
  store i64 1, ptr %12, align 8, !tbaa !4
  call void @llvm.lifetime.start.p0(i64 4, ptr nonnull %13) #5
  store i32 0, ptr %13, align 4, !tbaa !10
  %17 = load i32, ptr %0, align 4, !tbaa !10
  call void @__kmpc_for_static_init_8u(ptr nonnull @1, i32 %17, i32 34, ptr nonnull %13, ptr nonnull %10, ptr nonnull %11, ptr nonnull %12, i64 1, i64 1)
  %18 = load i64, ptr %11, align 8, !tbaa !4
  %19 = call i64 @llvm.umin.i64(i64 %18, i64 %16)
  store i64 %19, ptr %11, align 8, !tbaa !4
  %20 = load i64, ptr %10, align 8, !tbaa !4
  %.not36 = icmp ugt i64 %20, %19
  br i1 %.not36, label %._crit_edge34, label %.lr.ph33

.lr.ph33:                                         ; preds = %15, %._crit_edge
  %.031 = phi i64 [ %30, %._crit_edge ], [ %20, %15 ]
  %21 = load ptr, ptr %3, align 8, !tbaa !22
  %22 = load i64, ptr %4, align 8, !tbaa !4
  %23 = mul i64 %22, %.031
  %24 = getelementptr inbounds nuw i8, ptr %21, i64 %23
  %25 = load ptr, ptr %5, align 8, !tbaa !22
  %26 = load i64, ptr %6, align 8, !tbaa !4
  %27 = mul i64 %26, %.031
  %28 = getelementptr inbounds nuw i8, ptr %25, i64 %27
  call void @llvm.memset.p0.i64(ptr align 1 %28, i8 0, i64 %26, i1 false)
  %29 = load i64, ptr %7, align 8, !tbaa !4
  %.not35 = icmp eq i64 %29, 0
  br i1 %.not35, label %._crit_edge, label %.lr.ph

._crit_edge:                                      ; preds = %.lr.ph, %.lr.ph33
  %30 = add nuw i64 %.031, 1
  %31 = load i64, ptr %11, align 8, !tbaa !4
  %32 = add i64 %31, 1
  %33 = icmp ult i64 %30, %32
  br i1 %33, label %.lr.ph33, label %._crit_edge34

.lr.ph:                                           ; preds = %.lr.ph33, %.lr.ph
  %.02930 = phi i64 [ %53, %.lr.ph ], [ 0, %.lr.ph33 ]
  %34 = load ptr, ptr %8, align 8, !tbaa !36
  %35 = getelementptr inbounds nuw i32, ptr %34, i64 %.02930
  %36 = load i32, ptr %35, align 4, !tbaa !10
  %37 = ashr i32 %36, 3
  %38 = sext i32 %37 to i64
  %39 = getelementptr inbounds i8, ptr %24, i64 %38
  %40 = load i8, ptr %39, align 1, !tbaa !14
  %41 = zext i8 %40 to i32
  %42 = and i32 %36, 7
  %43 = lshr i32 %41, %42
  %44 = and i32 %43, 1
  %45 = trunc i64 %.02930 to i32
  %46 = and i32 %45, 7
  %47 = shl nuw nsw i32 %44, %46
  %48 = lshr i64 %.02930, 3
  %49 = getelementptr inbounds nuw i8, ptr %28, i64 %48
  %50 = load i8, ptr %49, align 1, !tbaa !14
  %51 = trunc nuw i32 %47 to i8
  %52 = or i8 %50, %51
  store i8 %52, ptr %49, align 1, !tbaa !14
  %53 = add nuw i64 %.02930, 1
  %54 = load i64, ptr %7, align 8, !tbaa !4
  %55 = icmp ult i64 %53, %54
  br i1 %55, label %.lr.ph, label %._crit_edge, !llvm.loop !46

._crit_edge34:                                    ; preds = %._crit_edge, %15
  call void @__kmpc_for_static_fini(ptr nonnull @1, i32 %17)
  call void @llvm.lifetime.end.p0(i64 4, ptr nonnull %13) #5
  call void @llvm.lifetime.end.p0(i64 8, ptr nonnull %12) #5
  call void @llvm.lifetime.end.p0(i64 8, ptr nonnull %11) #5
  call void @llvm.lifetime.end.p0(i64 8, ptr nonnull %10) #5
  br label %56

56:                                               ; preds = %._crit_edge34, %9
  ret void
}